target datalayout = "e-m:e-p270:32:32-p271:32:32-p272:64:64-i64:64-i128:128-f80:128-n8:16:32:64-S128"
target triple = "x86_64-pc-linux-gnu"

%struct.RangeBound = type { i64, i8, i8, i8 }
%struct.FmgrInfo = type { ptr, i32, i16, i8, i8, i8, ptr, ptr, ptr }
%struct.TypeCacheEntry = type { i32, i32, i16, i8, i8, i8, i8, i32, i32, i32, i32, i32, i32, i32, i32, i32, i32, i32, i32, i32, i32, %struct.FmgrInfo, %struct.FmgrInfo, %struct.FmgrInfo, %struct.FmgrInfo, ptr, i64, ptr, i32, i32, %struct.FmgrInfo, %struct.FmgrInfo, %struct.FmgrInfo, ptr, i32, i32, ptr, i32, ptr, ptr }
%struct.RangeType = type { i32, i32 }
%struct.anon = type { i32, [0 x i8] }
%struct.varattrib_1b = type { i8, [0 x i8] }
%struct.varattrib_1b_e = type { i8, i8, [0 x i8] }

@.str.17 = private unnamed_addr constant [29 x i8] c"unsupported byval length: %d\00", align 1
@.str.18 = private unnamed_addr constant [41 x i8] c"../../../../src/include/access/tupmacs.h\00", align 1
@__func__.fetch_att = private unnamed_addr constant [10 x i8] c"fetch_att\00", align 1

; Function Attrs: inlinehint nounwind uwtable
define internal i64 @PointerGetDatum(ptr noundef %0) #2 {
  %2 = alloca ptr, align 8
  store ptr %0, ptr %2, align 8
  %3 = load ptr, ptr %2, align 8
  %4 = ptrtoint ptr %3 to i64
  ret i64 %4
}

; Function Attrs: inlinehint nounwind uwtable
define internal i64 @Int32GetDatum(i32 noundef %0) #2 {
  %2 = alloca i32, align 4
  store i32 %0, ptr %2, align 4
  %3 = load i32, ptr %2, align 4
  %4 = sext i32 %3 to i64
  ret i64 %4
}

; Function Attrs: inlinehint nounwind uwtable
define internal i64 @Int16GetDatum(i16 noundef signext %0) #2 {
  %2 = alloca i16, align 2
  store i16 %0, ptr %2, align 2
  %3 = load i16, ptr %2, align 2
  %4 = sext i16 %3 to i64
  ret i64 %4
}

; Function Attrs: inlinehint nounwind uwtable
define internal i64 @CharGetDatum(i8 noundef signext %0) #2 {
  %2 = alloca i8, align 1
  store i8 %0, ptr %2, align 1
  %3 = load i8, ptr %2, align 1
  %4 = sext i8 %3 to i64
  ret i64 %4
}

; Function Attrs: inlinehint nounwind uwtable
define internal i64 @fetch_att(ptr noundef %0, i1 noundef zeroext %1, i32 noundef %2) #2 {
  %4 = alloca i64, align 8
  %5 = alloca ptr, align 8
  %6 = alloca i8, align 1
  %7 = alloca i32, align 4
  store ptr %0, ptr %5, align 8
  %8 = zext i1 %1 to i8
  store i8 %8, ptr %6, align 1
  store i32 %2, ptr %7, align 4
  %9 = load i8, ptr %6, align 1, !range !7, !noundef !8
  %10 = trunc i8 %9 to i1
  br i1 %10, label %11, label %39

11:                                               ; preds = %3
  %12 = load i32, ptr %7, align 4
  switch i32 %12, label %28 [
    i32 1, label %13
    i32 2, label %17
    i32 4, label %21
    i32 8, label %25
  ]

13:                                               ; preds = %11
  %14 = load ptr, ptr %5, align 8
  %15 = load i8, ptr %14, align 1
  %16 = call i64 @CharGetDatum(i8 noundef signext %15)
  store i64 %16, ptr %4, align 8
  br label %42

17:                                               ; preds = %11
  %18 = load ptr, ptr %5, align 8
  %19 = load i16, ptr %18, align 2
  %20 = call i64 @Int16GetDatum(i16 noundef signext %19)
  store i64 %20, ptr %4, align 8
  br label %42

21:                                               ; preds = %11
  %22 = load ptr, ptr %5, align 8
  %23 = load i32, ptr %22, align 4
  %24 = call i64 @Int32GetDatum(i32 noundef %23)
  store i64 %24, ptr %4, align 8
  br label %42

25:                                               ; preds = %11
  %26 = load ptr, ptr %5, align 8
  %27 = load i64, ptr %26, align 8
  store i64 %27, ptr %4, align 8
  br label %42

28:                                               ; preds = %11
  br label %29

29:                                               ; preds = %28
  br i1 true, label %30, label %32

30:                                               ; preds = %29
  %31 = call zeroext i1 @errstart_cold(i32 noundef 21, ptr noundef null) #11
  br i1 %31, label %34, label %37

32:                                               ; preds = %29
  %33 = call zeroext i1 @errstart(i32 noundef 21, ptr noundef null)
  br i1 %33, label %34, label %37

34:                                               ; preds = %32, %30
  %35 = load i32, ptr %7, align 4
  %36 = call i32 (ptr, ...) @errmsg_internal(ptr noundef @.str.17, i32 noundef %35)
  call void @errfinish(ptr noundef @.str.18, i32 noundef 70, ptr noundef @__func__.fetch_att)
  br label %37

37:                                               ; preds = %34, %32, %30
  unreachable

38:                                               ; No predecessors!
  store i64 0, ptr %4, align 8
  br label %42

39:                                               ; preds = %3
  %40 = load ptr, ptr %5, align 8
  %41 = call i64 @PointerGetDatum(ptr noundef %40)
  store i64 %41, ptr %4, align 8
  br label %42

42:                                               ; preds = %39, %38, %25, %21, %17, %13
  %43 = load i64, ptr %4, align 8
  ret i64 %43
}

; Function Attrs: nounwind uwtable
define dso_local void @range_deserialize(ptr noundef %0, ptr noundef %1, ptr noundef %2, ptr noundef %3, ptr noundef %4) #0 {
  %6 = alloca ptr, align 8
  %7 = alloca ptr, align 8
  %8 = alloca ptr, align 8
  %9 = alloca ptr, align 8
  %10 = alloca ptr, align 8
  %11 = alloca i8, align 1
  %12 = alloca i16, align 2
  %13 = alloca i8, align 1
  %14 = alloca i8, align 1
  %15 = alloca ptr, align 8
  %16 = alloca i64, align 8
  %17 = alloca i64, align 8
  store ptr %0, ptr %6, align 8
  store ptr %1, ptr %7, align 8
  store ptr %2, ptr %8, align 8
  store ptr %3, ptr %9, align 8
  store ptr %4, ptr %10, align 8
  call void @llvm.lifetime.start.p0(i64 1, ptr %11) #10
  call void @llvm.lifetime.start.p0(i64 2, ptr %12) #10
  call void @llvm.lifetime.start.p0(i64 1, ptr %13) #10
  call void @llvm.lifetime.start.p0(i64 1, ptr %14) #10
  call void @llvm.lifetime.start.p0(i64 8, ptr %15) #10
  call void @llvm.lifetime.start.p0(i64 8, ptr %16) #10
  call void @llvm.lifetime.start.p0(i64 8, ptr %17) #10
  %18 = load ptr, ptr %7, align 8
  %19 = load ptr, ptr %7, align 8
  %20 = getelementptr inbounds nuw %struct.anon, ptr %19, i32 0, i32 0
  %21 = load i32, ptr %20, align 4
  %22 = lshr i32 %21, 2
  %23 = and i32 %22, 1073741823
  %24 = zext i32 %23 to i64
  %25 = getelementptr inbounds nuw i8, ptr %18, i64 %24
  %26 = getelementptr inbounds i8, ptr %25, i64 -1
  %27 = load i8, ptr %26, align 1
  store i8 %27, ptr %11, align 1
  %28 = load ptr, ptr %6, align 8
  %29 = getelementptr inbounds nuw %struct.TypeCacheEntry, ptr %28, i32 0, i32 27
  %30 = load ptr, ptr %29, align 8
  %31 = getelementptr inbounds nuw %struct.TypeCacheEntry, ptr %30, i32 0, i32 2
  %32 = load i16, ptr %31, align 8
  store i16 %32, ptr %12, align 2
  %33 = load ptr, ptr %6, align 8
  %34 = getelementptr inbounds nuw %struct.TypeCacheEntry, ptr %33, i32 0, i32 27
  %35 = load ptr, ptr %34, align 8
  %36 = getelementptr inbounds nuw %struct.TypeCacheEntry, ptr %35, i32 0, i32 3
  %37 = load i8, ptr %36, align 2, !range !7, !noundef !8
  %38 = trunc i8 %37 to i1
  %39 = zext i1 %38 to i8
  store i8 %39, ptr %13, align 1
  %40 = load ptr, ptr %6, align 8
  %41 = getelementptr inbounds nuw %struct.TypeCacheEntry, ptr %40, i32 0, i32 27
  %42 = load ptr, ptr %41, align 8
  %43 = getelementptr inbounds nuw %struct.TypeCacheEntry, ptr %42, i32 0, i32 4
  %44 = load i8, ptr %43, align 1
  store i8 %44, ptr %14, align 1
  %45 = load ptr, ptr %7, align 8
  %46 = getelementptr inbounds %struct.RangeType, ptr %45, i64 1
  store ptr %46, ptr %15, align 8
  %47 = load i8, ptr %11, align 1
  %48 = sext i8 %47 to i32
  %49 = and i32 %48, 41
  %50 = icmp ne i32 %49, 0
  br i1 %50, label %141, label %51

51:                                               ; preds = %5
  %52 = load ptr, ptr %15, align 8
  %53 = load i8, ptr %13, align 1, !range !7, !noundef !8
  %54 = trunc i8 %53 to i1
  %55 = load i16, ptr %12, align 2
  %56 = sext i16 %55 to i32
  %57 = call i64 @fetch_att(ptr noundef %52, i1 noundef zeroext %54, i32 noundef %56)
  store i64 %57, ptr %16, align 8
  %58 = load i16, ptr %12, align 2
  %59 = sext i16 %58 to i32
  %60 = icmp sgt i32 %59, 0
  br i1 %60, label %61, label %67

61:                                               ; preds = %51
  %62 = load ptr, ptr %15, align 8
  %63 = load i16, ptr %12, align 2
  %64 = sext i16 %63 to i32
  %65 = sext i32 %64 to i64
  %66 = getelementptr inbounds i8, ptr %62, i64 %65
  br label %139

67:                                               ; preds = %51
  %68 = load i16, ptr %12, align 2
  %69 = sext i16 %68 to i32
  %70 = icmp eq i32 %69, -1
  br i1 %70, label %71, label %131

71:                                               ; preds = %67
  %72 = load ptr, ptr %15, align 8
  %73 = load ptr, ptr %15, align 8
  %74 = getelementptr inbounds nuw %struct.varattrib_1b, ptr %73, i32 0, i32 0
  %75 = load i8, ptr %74, align 1
  %76 = zext i8 %75 to i32
  %77 = icmp eq i32 %76, 1
  br i1 %77, label %78, label %105

78:                                               ; preds = %71
  %79 = load ptr, ptr %15, align 8
  %80 = getelementptr inbounds nuw %struct.varattrib_1b_e, ptr %79, i32 0, i32 1
  %81 = load i8, ptr %80, align 1
  %82 = zext i8 %81 to i32
  %83 = icmp eq i32 %82, 1
  br i1 %83, label %84, label %85

84:                                               ; preds = %78
  br label %102

85:                                               ; preds = %78
  %86 = load ptr, ptr %15, align 8
  %87 = getelementptr inbounds nuw %struct.varattrib_1b_e, ptr %86, i32 0, i32 1
  %88 = load i8, ptr %87, align 1
  %89 = zext i8 %88 to i32
  %90 = and i32 %89, -2
  %91 = icmp eq i32 %90, 2
  br i1 %91, label %92, label %93

92:                                               ; preds = %85
  br label %100

93:                                               ; preds = %85
  %94 = load ptr, ptr %15, align 8
  %95 = getelementptr inbounds nuw %struct.varattrib_1b_e, ptr %94, i32 0, i32 1
  %96 = load i8, ptr %95, align 1
  %97 = zext i8 %96 to i32
  %98 = icmp eq i32 %97, 18
  %99 = select i1 %98, i64 16, i64 0
  br label %100

100:                                              ; preds = %93, %92
  %101 = phi i64 [ 8, %92 ], [ %99, %93 ]
  br label %102

102:                                              ; preds = %100, %84
  %103 = phi i64 [ 8, %84 ], [ %101, %100 ]
  %104 = add i64 2, %103
  br label %128

105:                                              ; preds = %71
  %106 = load ptr, ptr %15, align 8
  %107 = getelementptr inbounds nuw %struct.varattrib_1b, ptr %106, i32 0, i32 0
  %108 = load i8, ptr %107, align 1
  %109 = zext i8 %108 to i32
  %110 = and i32 %109, 1
  %111 = icmp eq i32 %110, 1
  br i1 %111, label %112, label %119

112:                                              ; preds = %105
  %113 = load ptr, ptr %15, align 8
  %114 = getelementptr inbounds nuw %struct.varattrib_1b, ptr %113, i32 0, i32 0
  %115 = load i8, ptr %114, align 1
  %116 = zext i8 %115 to i32
  %117 = ashr i32 %116, 1
  %118 = and i32 %117, 127
  br label %125

119:                                              ; preds = %105
  %120 = load ptr, ptr %15, align 8
  %121 = getelementptr inbounds nuw %struct.anon, ptr %120, i32 0, i32 0
  %122 = load i32, ptr %121, align 4
  %123 = lshr i32 %122, 2
  %124 = and i32 %123, 1073741823
  br label %125

125:                                              ; preds = %119, %112
  %126 = phi i32 [ %118, %112 ], [ %124, %119 ]
  %127 = zext i32 %126 to i64
  br label %128

128:                                              ; preds = %125, %102
  %129 = phi i64 [ %104, %102 ], [ %127, %125 ]
  %130 = getelementptr inbounds nuw i8, ptr %72, i64 %129
  br label %137

131:                                              ; preds = %67
  %132 = load ptr, ptr %15, align 8
  %133 = load ptr, ptr %15, align 8
  %134 = call i64 @strlen(ptr noundef %133) #13
  %135 = add i64 %134, 1
  %136 = getelementptr inbounds nuw i8, ptr %132, i64 %135
  br label %137

137:                                              ; preds = %131, %128
  %138 = phi ptr [ %130, %128 ], [ %136, %131 ]
  br label %139

139:                                              ; preds = %137, %61
  %140 = phi ptr [ %66, %61 ], [ %138, %137 ]
  store ptr %140, ptr %15, align 8
  br label %142

141:                                              ; preds = %5
  store i64 0, ptr %16, align 8
  br label %142

142:                                              ; preds = %141, %139
  %143 = load i8, ptr %11, align 1
  %144 = sext i8 %143 to i32
  %145 = and i32 %144, 81
  %146 = icmp ne i32 %145, 0
  br i1 %146, label %204, label %147

147:                                              ; preds = %142
  %148 = load i16, ptr %12, align 2
  %149 = sext i16 %148 to i32
  %150 = icmp eq i32 %149, -1
  br i1 %150, label %151, label %159

151:                                              ; preds = %147
  %152 = load ptr, ptr %15, align 8
  %153 = load i8, ptr %152, align 1
  %154 = zext i8 %153 to i32
  %155 = icmp ne i32 %154, 0
  br i1 %155, label %156, label %159

156:                                              ; preds = %151
  %157 = load ptr, ptr %15, align 8
  %158 = ptrtoint ptr %157 to i64
  br label %195

159:                                              ; preds = %151, %147
  %160 = load i8, ptr %14, align 1
  %161 = sext i8 %160 to i32
  %162 = icmp eq i32 %161, 105
  br i1 %162, label %163, label %168

163:                                              ; preds = %159
  %164 = load ptr, ptr %15, align 8
  %165 = ptrtoint ptr %164 to i64
  %166 = add i64 %165, 3
  %167 = and i64 %166, -4
  br label %193

168:                                              ; preds = %159
  %169 = load i8, ptr %14, align 1
  %170 = sext i8 %169 to i32
  %171 = icmp eq i32 %170, 99
  br i1 %171, label %172, label %175

172:                                              ; preds = %168
  %173 = load ptr, ptr %15, align 8
  %174 = ptrtoint ptr %173 to i64
  br label %191

175:                                              ; preds = %168
  %176 = load i8, ptr %14, align 1
  %177 = sext i8 %176 to i32
  %178 = icmp eq i32 %177, 100
  br i1 %178, label %179, label %184

179:                                              ; preds = %175
  %180 = load ptr, ptr %15, align 8
  %181 = ptrtoint ptr %180 to i64
  %182 = add i64 %181, 7
  %183 = and i64 %182, -8
  br label %189

184:                                              ; preds = %175
  %185 = load ptr, ptr %15, align 8
  %186 = ptrtoint ptr %185 to i64
  %187 = add i64 %186, 1
  %188 = and i64 %187, -2
  br label %189

189:                                              ; preds = %184, %179
  %190 = phi i64 [ %183, %179 ], [ %188, %184 ]
  br label %191

191:                                              ; preds = %189, %172
  %192 = phi i64 [ %174, %172 ], [ %190, %189 ]
  br label %193

193:                                              ; preds = %191, %163
  %194 = phi i64 [ %167, %163 ], [ %192, %191 ]
  br label %195

195:                                              ; preds = %193, %156
  %196 = phi i64 [ %158, %156 ], [ %194, %193 ]
  %197 = inttoptr i64 %196 to ptr
  store ptr %197, ptr %15, align 8
  %198 = load ptr, ptr %15, align 8
  %199 = load i8, ptr %13, align 1, !range !7, !noundef !8
  %200 = trunc i8 %199 to i1
  %201 = load i16, ptr %12, align 2
  %202 = sext i16 %201 to i32
  %203 = call i64 @fetch_att(ptr noundef %198, i1 noundef zeroext %200, i32 noundef %202)
  store i64 %203, ptr %17, align 8
  br label %205

204:                                              ; preds = %142
  store i64 0, ptr %17, align 8
  br label %205

205:                                              ; preds = %204, %195
  %206 = load i8, ptr %11, align 1
  %207 = sext i8 %206 to i32
  %208 = and i32 %207, 1
  %209 = icmp ne i32 %208, 0
  %210 = load ptr, ptr %10, align 8
  %211 = zext i1 %209 to i8
  store i8 %211, ptr %210, align 1
  %212 = load i64, ptr %16, align 8
  %213 = load ptr, ptr %8, align 8
  %214 = getelementptr inbounds nuw %struct.RangeBound, ptr %213, i32 0, i32 0
  store i64 %212, ptr %214, align 8
  %215 = load i8, ptr %11, align 1
  %216 = sext i8 %215 to i32
  %217 = and i32 %216, 8
  %218 = icmp ne i32 %217, 0
  %219 = load ptr, ptr %8, align 8
  %220 = getelementptr inbounds nuw %struct.RangeBound, ptr %219, i32 0, i32 1
  %221 = zext i1 %218 to i8
  store i8 %221, ptr %220, align 8
  %222 = load i8, ptr %11, align 1
  %223 = sext i8 %222 to i32
  %224 = and i32 %223, 2
  %225 = icmp ne i32 %224, 0
  %226 = load ptr, ptr %8, align 8
  %227 = getelementptr inbounds nuw %struct.RangeBound, ptr %226, i32 0, i32 2
  %228 = zext i1 %225 to i8
  store i8 %228, ptr %227, align 1
  %229 = load ptr, ptr %8, align 8
  %230 = getelementptr inbounds nuw %struct.RangeBound, ptr %229, i32 0, i32 3
  store i8 1, ptr %230, align 2
  %231 = load i64, ptr %17, align 8
  %232 = load ptr, ptr %9, align 8
  %233 = getelementptr inbounds nuw %struct.RangeBound, ptr %232, i32 0, i32 0
  store i64 %231, ptr %233, align 8
  %234 = load i8, ptr %11, align 1
  %235 = sext i8 %234 to i32
  %236 = and i32 %235, 16
  %237 = icmp ne i32 %236, 0
  %238 = load ptr, ptr %9, align 8
  %239 = getelementptr inbounds nuw %struct.RangeBound, ptr %238, i32 0, i32 1
  %240 = zext i1 %237 to i8
  store i8 %240, ptr %239, align 8
  %241 = load i8, ptr %11, align 1
  %242 = sext i8 %241 to i32
  %243 = and i32 %242, 4
  %244 = icmp ne i32 %243, 0
  %245 = load ptr, ptr %9, align 8
  %246 = getelementptr inbounds nuw %struct.RangeBound, ptr %245, i32 0, i32 2
  %247 = zext i1 %244 to i8
  store i8 %247, ptr %246, align 1
  %248 = load ptr, ptr %9, align 8
  %249 = getelementptr inbounds nuw %struct.RangeBound, ptr %248, i32 0, i32 3
  store i8 0, ptr %249, align 2
  call void @llvm.lifetime.end.p0(i64 8, ptr %17) #10
  call void @llvm.lifetime.end.p0(i64 8, ptr %16) #10
  call void @llvm.lifetime.end.p0(i64 8, ptr %15) #10
  call void @llvm.lifetime.end.p0(i64 1, ptr %14) #10
  call void @llvm.lifetime.end.p0(i64 1, ptr %13) #10
  call void @llvm.lifetime.end.p0(i64 2, ptr %12) #10
  call void @llvm.lifetime.end.p0(i64 1, ptr %11) #10
  ret void
}