; Function Attrs: nounwind uwtable
define dso_local void @range_deserialize(ptr noundef readonly captures(none) %0, ptr noundef %1, ptr noundef writeonly captures(none) %2, ptr noundef writeonly captures(none) %3, ptr noundef writeonly captures(none) %4) local_unnamed_addr #0 {
  %6 = load i32, ptr %1, align 4
  %7 = lshr i32 %6, 2
  %8 = zext nneg i32 %7 to i64
  %9 = getelementptr inbounds nuw i8, ptr %1, i64 %8
  %10 = getelementptr inbounds i8, ptr %9, i64 -1
  %11 = load i8, ptr %10, align 1
  %12 = getelementptr inbounds nuw i8, ptr %0, i64 280
  %13 = load ptr, ptr %12, align 8
  %14 = getelementptr inbounds nuw i8, ptr %13, i64 8
  %15 = load i16, ptr %14, align 8
  %16 = getelementptr inbounds nuw i8, ptr %13, i64 10
  %17 = load i8, ptr %16, align 2, !range !7, !noundef !8
  %18 = trunc nuw i8 %17 to i1
  %19 = getelementptr inbounds nuw i8, ptr %13, i64 11
  %20 = load i8, ptr %19, align 1
  %21 = getelementptr inbounds nuw i8, ptr %1, i64 8
  %22 = and i8 %11, 41
  %.not = icmp eq i8 %22, 0
  br i1 %.not, label %23, label %73

23:                                               ; preds = %5
  %24 = sext i16 %15 to i32
  br i1 %18, label %25, label %fetch_att.exit

25:                                               ; preds = %23
  switch i16 %15, label %37 [
    i16 1, label %26
    i16 2, label %29
    i16 4, label %32
    i16 8, label %35
  ]

26:                                               ; preds = %25
  %27 = load i8, ptr %21, align 1
  %28 = sext i8 %27 to i64
  br label %fetch_att.exit.thread

29:                                               ; preds = %25
  %30 = load i16, ptr %21, align 2
  %31 = sext i16 %30 to i64
  br label %fetch_att.exit.thread

32:                                               ; preds = %25
  %33 = load i32, ptr %21, align 4
  %34 = sext i32 %33 to i64
  br label %fetch_att.exit.thread

35:                                               ; preds = %25
  %36 = load i64, ptr %21, align 8
  br label %fetch_att.exit.thread

37:                                               ; preds = %25
  %38 = tail call zeroext i1 @errstart_cold(i32 noundef 21, ptr noundef null) #16
  tail call void @llvm.assume(i1 %38)
  %39 = tail call i32 (ptr, ...) @errmsg_internal(ptr noundef nonnull @.str.17, i32 noundef range(i32 -32768, 32768) %24) #14
  tail call void @errfinish(ptr noundef nonnull @.str.18, i32 noundef 70, ptr noundef nonnull @__func__.fetch_att) #14
  unreachable

fetch_att.exit:                                   ; preds = %23
  %40 = ptrtoint ptr %21 to i64
  %41 = icmp sgt i16 %15, 0
  br i1 %41, label %fetch_att.exit.thread, label %44

fetch_att.exit.thread:                            ; preds = %35, %32, %29, %26, %fetch_att.exit
  %.0.i83 = phi i64 [ %40, %fetch_att.exit ], [ %28, %26 ], [ %31, %29 ], [ %34, %32 ], [ %36, %35 ]
  %42 = zext nneg i32 %24 to i64
  %43 = getelementptr inbounds nuw i8, ptr %21, i64 %42
  br label %73

44:                                               ; preds = %fetch_att.exit
  %45 = icmp eq i16 %15, -1
  br i1 %45, label %46, label %69

46:                                               ; preds = %44
  %47 = load i8, ptr %21, align 1
  %48 = zext i8 %47 to i32
  %49 = icmp eq i8 %47, 1
  br i1 %49, label %50, label %59

50:                                               ; preds = %46
  %51 = getelementptr inbounds nuw i8, ptr %1, i64 9
  %52 = load i8, ptr %51, align 1
  %53 = icmp eq i8 %52, 1
  %54 = and i8 %52, -2
  %55 = icmp eq i8 %54, 2
  %or.cond = or i1 %53, %55
  %56 = icmp eq i8 %52, 18
  %57 = select i1 %56, i64 18, i64 2
  %58 = select i1 %or.cond, i64 10, i64 %57
  br label %.thread

59:                                               ; preds = %46
  %60 = and i32 %48, 1
  %.not59 = icmp eq i32 %60, 0
  br i1 %.not59, label %63, label %61

61:                                               ; preds = %59
  %62 = lshr i32 %48, 1
  br label %66

63:                                               ; preds = %59
  %64 = load i32, ptr %21, align 4
  %65 = lshr i32 %64, 2
  br label %66

66:                                               ; preds = %63, %61
  %67 = phi i32 [ %62, %61 ], [ %65, %63 ]
  %68 = zext nneg i32 %67 to i64
  br label %.thread

69:                                               ; preds = %44
  %70 = tail call i64 @strlen(ptr noundef nonnull dereferenceable(1) %21) #17
  %71 = getelementptr i8, ptr %21, i64 %70
  %72 = getelementptr i8, ptr %71, i64 1
  br label %73

73:                                               ; preds = %5, %fetch_att.exit.thread, %69
  %.054 = phi ptr [ %43, %fetch_att.exit.thread ], [ %72, %69 ], [ %21, %5 ]
  %.053 = phi i64 [ %.0.i83, %fetch_att.exit.thread ], [ %40, %69 ], [ 0, %5 ]
  %74 = and i8 %11, 81
  %.not60 = icmp eq i8 %74, 0
  br i1 %.not60, label %78, label %fetch_att.exit67

.thread:                                          ; preds = %50, %66
  %75 = phi i64 [ %58, %50 ], [ %68, %66 ]
  %76 = and i8 %11, 80
  %.not6070 = icmp eq i8 %76, 0
  br i1 %.not6070, label %.thread74, label %fetch_att.exit67

.thread74:                                        ; preds = %.thread
  %77 = getelementptr inbounds nuw i8, ptr %21, i64 %75
  br label %81

78:                                               ; preds = %73
  %79 = sext i16 %15 to i32
  %80 = icmp eq i16 %15, -1
  br i1 %80, label %81, label %85

81:                                               ; preds = %.thread74, %78
  %.0547180 = phi ptr [ %77, %.thread74 ], [ %.054, %78 ]
  %.0537379 = phi i64 [ %40, %.thread74 ], [ %.053, %78 ]
  %82 = load i8, ptr %.0547180, align 1
  %.not61 = icmp eq i8 %82, 0
  br i1 %.not61, label %85, label %83

83:                                               ; preds = %81
  %84 = ptrtoint ptr %.0547180 to i64
  br label %97

85:                                               ; preds = %81, %78
  %86 = phi i32 [ -1, %81 ], [ %79, %78 ]
  %.0547181 = phi ptr [ %.0547180, %81 ], [ %.054, %78 ]
  %.0537378 = phi i64 [ %.0537379, %81 ], [ %.053, %78 ]
  %87 = ptrtoint ptr %.0547181 to i64
  switch i8 %20, label %94 [
    i8 105, label %88
    i8 99, label %97
    i8 100, label %91
  ]

88:                                               ; preds = %85
  %89 = add i64 %87, 3
  %90 = and i64 %89, -4
  br label %97

91:                                               ; preds = %85
  %92 = add i64 %87, 7
  %93 = and i64 %92, -8
  br label %97

94:                                               ; preds = %85
  %95 = add i64 %87, 1
  %96 = and i64 %95, -2
  br label %97

97:                                               ; preds = %85, %88, %91, %94, %83
  %98 = phi i32 [ -1, %83 ], [ %86, %88 ], [ %86, %91 ], [ %86, %94 ], [ %86, %85 ]
  %.0537377 = phi i64 [ %.0537379, %83 ], [ %.0537378, %88 ], [ %.0537378, %91 ], [ %.0537378, %94 ], [ %.0537378, %85 ]
  %99 = phi i64 [ %84, %83 ], [ %90, %88 ], [ %93, %91 ], [ %96, %94 ], [ %87, %85 ]
  %100 = inttoptr i64 %99 to ptr
  br i1 %18, label %101, label %fetch_att.exit67

101:                                              ; preds = %97
  switch i32 %98, label %113 [
    i32 1, label %102
    i32 2, label %105
    i32 4, label %108
    i32 8, label %111
  ]

102:                                              ; preds = %101
  %103 = load i8, ptr %100, align 1
  %104 = sext i8 %103 to i64
  br label %fetch_att.exit67

105:                                              ; preds = %101
  %106 = load i16, ptr %100, align 2
  %107 = sext i16 %106 to i64
  br label %fetch_att.exit67

108:                                              ; preds = %101
  %109 = load i32, ptr %100, align 4
  %110 = sext i32 %109 to i64
  br label %fetch_att.exit67

111:                                              ; preds = %101
  %112 = load i64, ptr %100, align 8
  br label %fetch_att.exit67

113:                                              ; preds = %101
  %114 = tail call zeroext i1 @errstart_cold(i32 noundef 21, ptr noundef null) #16
  tail call void @llvm.assume(i1 %114)
  %115 = tail call i32 (ptr, ...) @errmsg_internal(ptr noundef nonnull @.str.17, i32 noundef range(i32 -32768, 32768) %98) #14
  tail call void @errfinish(ptr noundef nonnull @.str.18, i32 noundef 70, ptr noundef nonnull @__func__.fetch_att) #14
  unreachable

fetch_att.exit67:                                 ; preds = %111, %108, %105, %102, %97, %.thread, %73
  %.05372 = phi i64 [ %.053, %73 ], [ %40, %.thread ], [ %.0537377, %97 ], [ %.0537377, %102 ], [ %.0537377, %105 ], [ %.0537377, %108 ], [ %.0537377, %111 ]
  %.0 = phi i64 [ 0, %73 ], [ 0, %.thread ], [ %99, %97 ], [ %104, %102 ], [ %107, %105 ], [ %110, %108 ], [ %112, %111 ]
  %116 = and i8 %11, 1
  store i8 %116, ptr %4, align 1
  store i64 %.05372, ptr %2, align 8
  %117 = getelementptr inbounds nuw i8, ptr %2, i64 8
  %118 = lshr i8 %11, 3
  %.lobit = and i8 %118, 1
  store i8 %.lobit, ptr %117, align 8
  %119 = getelementptr inbounds nuw i8, ptr %2, i64 9
  %120 = lshr i8 %11, 1
  %.lobit62 = and i8 %120, 1
  store i8 %.lobit62, ptr %119, align 1
  %121 = getelementptr inbounds nuw i8, ptr %2, i64 10
  store i8 1, ptr %121, align 2
  store i64 %.0, ptr %3, align 8
  %122 = getelementptr inbounds nuw i8, ptr %3, i64 8
  %123 = lshr i8 %11, 4
  %.lobit63 = and i8 %123, 1
  store i8 %.lobit63, ptr %122, align 8
  %124 = getelementptr inbounds nuw i8, ptr %3, i64 9
  %125 = lshr i8 %11, 2
  %.lobit64 = and i8 %125, 1
  store i8 %.lobit64, ptr %124, align 1
  %126 = getelementptr inbounds nuw i8, ptr %3, i64 10
  store i8 0, ptr %126, align 2
  ret void
}